; Function Attrs: nofree norecurse nosync nounwind memory(readwrite, inaccessiblemem: none) uwtable
define void @Amap_ManCleanRefs(ptr noundef readonly captures(none) %0) local_unnamed_addr #4 {
  %2 = getelementptr inbounds nuw i8, ptr %0, i64 48
  %3 = load ptr, ptr %2, align 8, !tbaa !20
  %4 = getelementptr i8, ptr %3, i64 4
  %.val9 = load i32, ptr %4, align 4, !tbaa !21
  %5 = icmp sgt i32 %.val9, 0
  br i1 %5, label %.lr.ph, label %.critedge

.lr.ph:                                           ; preds = %1
  %6 = getelementptr i8, ptr %3, i64 8
  %.val8 = load ptr, ptr %6, align 8, !tbaa !23
  br label %7

7:                                                ; preds = %.lr.ph, %14
  %.val12 = phi i32 [ %.val9, %.lr.ph ], [ %.val, %14 ]
  %indvars.iv = phi i64 [ 0, %.lr.ph ], [ %indvars.iv.next, %14 ]
  %8 = getelementptr inbounds nuw ptr, ptr %.val8, i64 %indvars.iv
  %9 = load ptr, ptr %8, align 8, !tbaa !24
  %10 = icmp eq ptr %9, null
  br i1 %10, label %14, label %11

11:                                               ; preds = %7
  %12 = getelementptr inbounds nuw i8, ptr %9, i64 52
  %13 = getelementptr inbounds nuw i8, ptr %9, i64 56
  store i32 0, ptr %13, align 4, !tbaa !25
  store i32 0, ptr %12, align 4, !tbaa !25
  %.val.pre = load i32, ptr %4, align 4, !tbaa !21
  br label %14

14:                                               ; preds = %11, %7
  %.val = phi i32 [ %.val.pre, %11 ], [ %.val12, %7 ]
  %indvars.iv.next = add nuw nsw i64 %indvars.iv, 1
  %15 = sext i32 %.val to i64
  %16 = icmp slt i64 %indvars.iv.next, %15
  br i1 %16, label %7, label %.critedge, !llvm.loop !26

.critedge:                                        ; preds = %14, %1
  ret void
}